; Function Attrs: mustprogress nofree norecurse nosync nounwind willreturn memory(read, inaccessiblemem: none) uwtable
define internal noundef i64 @_ZNK8facebook5velox10serializer12_GLOBAL__N_126CompactRowVectorSerializer17maxSerializedSizeEv(ptr nocapture noundef nonnull readonly align 8 dereferenceable(40) %this) unnamed_addr #14 align 2 {
entry:
  %buffers_ = getelementptr inbounds i8, ptr %this, i64 16
  %0 = load ptr, ptr %buffers_, align 8
  %_M_finish.i = getelementptr inbounds i8, ptr %this, i64 24
  %1 = load ptr, ptr %_M_finish.i, align 8
  %cmp.i.not5 = icmp eq ptr %0, %1
  br i1 %cmp.i.not5, label %for.end, label %for.body

for.body:                                         ; preds = %entry, %for.body
  %totalSize.07 = phi i64 [ %add, %for.body ], [ 0, %entry ]
  %__begin3.sroa.0.06 = phi ptr [ %incdec.ptr.i, %for.body ], [ %0, %entry ]
  %2 = load ptr, ptr %__begin3.sroa.0.06, align 8
  %size_.i = getelementptr inbounds i8, ptr %2, i64 24
  %3 = load i64, ptr %size_.i, align 8
  %add = add i64 %3, %totalSize.07
  %incdec.ptr.i = getelementptr inbounds i8, ptr %__begin3.sroa.0.06, i64 8
  %cmp.i.not = icmp eq ptr %incdec.ptr.i, %1
  br i1 %cmp.i.not, label %for.end, label %for.body

for.end:                                          ; preds = %for.body, %entry
  %totalSize.0.lcssa = phi i64 [ 0, %entry ], [ %add, %for.body ]
  ret i64 %totalSize.0.lcssa
}